; Function Attrs: mustprogress nofree norecurse nosync nounwind willreturn memory(argmem: read) uwtable
define dso_local range(i32 0, 2) i32 @WPACKET_is_null_buf(ptr noundef readonly captures(none) %0) local_unnamed_addr #10 {
  %2 = load ptr, ptr %0, align 8, !tbaa !17
  %3 = icmp eq ptr %2, null
  br i1 %3, label %4, label %9

4:                                                ; preds = %1
  %5 = getelementptr inbounds nuw i8, ptr %0, i64 8
  %6 = load ptr, ptr %5, align 8, !tbaa !20
  %7 = icmp eq ptr %6, null
  %8 = zext i1 %7 to i32
  br label %9

9:                                                ; preds = %4, %1
  %10 = phi i32 [ 0, %1 ], [ %8, %4 ]
  ret i32 %10
}